target datalayout = "e-m:e-p270:32:32-p271:32:32-p272:64:64-i64:64-i128:128-f80:128-n8:16:32:64-S128"
target triple = "x86_64-pc-linux-gnu"

@.str.360 = private unnamed_addr constant [5 x i8] c"CORK\00", align 1
@.str.407 = private unnamed_addr constant [9 x i8] c"UDP_CORK\00", align 1

; Function Attrs: nounwind sspstrong uwtable
define i32 @rsock_udp_optname_to_int(ptr noundef %0, i64 noundef %1, ptr noundef %2) #0 {
  %4 = alloca i32, align 4
  %5 = alloca ptr, align 8
  %6 = alloca i64, align 8
  %7 = alloca ptr, align 8
  store ptr %0, ptr %5, align 8, !tbaa !6
  store i64 %1, ptr %6, align 8, !tbaa !11
  store ptr %2, ptr %7, align 8, !tbaa !13
  %8 = load i64, ptr %6, align 8, !tbaa !11
  switch i64 %8, label %23 [
    i64 4, label %9
    i64 8, label %16
  ]

9:                                                ; preds = %3
  %10 = load ptr, ptr %5, align 8, !tbaa !6
  %11 = call i32 @memcmp(ptr noundef %10, ptr noundef @.str.360, i64 noundef 4) #10
  %12 = icmp eq i32 %11, 0
  br i1 %12, label %13, label %15

13:                                               ; preds = %9
  %14 = load ptr, ptr %7, align 8, !tbaa !13
  store i32 1, ptr %14, align 4, !tbaa !15
  store i32 0, ptr %4, align 4
  br label %31

15:                                               ; preds = %9
  store i32 -1, ptr %4, align 4
  br label %31

16:                                               ; preds = %3
  %17 = load ptr, ptr %5, align 8, !tbaa !6
  %18 = call i32 @memcmp(ptr noundef %17, ptr noundef @.str.407, i64 noundef 8) #10
  %19 = icmp eq i32 %18, 0
  br i1 %19, label %20, label %22

20:                                               ; preds = %16
  %21 = load ptr, ptr %7, align 8, !tbaa !13
  store i32 1, ptr %21, align 4, !tbaa !15
  store i32 0, ptr %4, align 4
  br label %31

22:                                               ; preds = %16
  store i32 -1, ptr %4, align 4
  br label %31

23:                                               ; preds = %3
  %24 = load ptr, ptr %5, align 8, !tbaa !6
  %25 = icmp ne ptr %24, null
  br i1 %25, label %26, label %29

26:                                               ; preds = %23
  %27 = load ptr, ptr %7, align 8, !tbaa !13
  %28 = icmp ne ptr %27, null
  br i1 %28, label %30, label %29

29:                                               ; preds = %26, %23
  br label %30

30:                                               ; preds = %29, %26
  store i32 -1, ptr %4, align 4
  br label %31

31:                                               ; preds = %30, %22, %20, %15, %13
  %32 = load i32, ptr %4, align 4
  ret i32 %32
}